target datalayout = "e-m:e-p270:32:32-p271:32:32-p272:64:64-i64:64-i128:128-f80:128-n8:16:32:64-S128"
target triple = "x86_64-pc-linux-gnu"

; Function Attrs: mustprogress nounwind uwtable
define hidden noundef zeroext i8 @_ZN7Threads24is_supported_jni_versionEi(i32 noundef %0) #1 align 2 {
  %2 = alloca i8, align 1
  %3 = alloca i32, align 4
  store i32 %0, ptr %3, align 4
  %4 = load i32, ptr %3, align 4
  %5 = icmp eq i32 %4, 65538
  br i1 %5, label %6, label %7

6:                                                ; preds = %1
  store i8 1, ptr %2, align 1
  br label %40

7:                                                ; preds = %1
  %8 = load i32, ptr %3, align 4
  %9 = icmp eq i32 %8, 65540
  br i1 %9, label %10, label %11

10:                                               ; preds = %7
  store i8 1, ptr %2, align 1
  br label %40

11:                                               ; preds = %7
  %12 = load i32, ptr %3, align 4
  %13 = icmp eq i32 %12, 65542
  br i1 %13, label %14, label %15

14:                                               ; preds = %11
  store i8 1, ptr %2, align 1
  br label %40

15:                                               ; preds = %11
  %16 = load i32, ptr %3, align 4
  %17 = icmp eq i32 %16, 65544
  br i1 %17, label %18, label %19

18:                                               ; preds = %15
  store i8 1, ptr %2, align 1
  br label %40

19:                                               ; preds = %15
  %20 = load i32, ptr %3, align 4
  %21 = icmp eq i32 %20, 589824
  br i1 %21, label %22, label %23

22:                                               ; preds = %19
  store i8 1, ptr %2, align 1
  br label %40

23:                                               ; preds = %19
  %24 = load i32, ptr %3, align 4
  %25 = icmp eq i32 %24, 655360
  br i1 %25, label %26, label %27

26:                                               ; preds = %23
  store i8 1, ptr %2, align 1
  br label %40

27:                                               ; preds = %23
  %28 = load i32, ptr %3, align 4
  %29 = icmp eq i32 %28, 1245184
  br i1 %29, label %30, label %31

30:                                               ; preds = %27
  store i8 1, ptr %2, align 1
  br label %40

31:                                               ; preds = %27
  %32 = load i32, ptr %3, align 4
  %33 = icmp eq i32 %32, 1310720
  br i1 %33, label %34, label %35

34:                                               ; preds = %31
  store i8 1, ptr %2, align 1
  br label %40

35:                                               ; preds = %31
  %36 = load i32, ptr %3, align 4
  %37 = icmp eq i32 %36, 1376256
  br i1 %37, label %38, label %39

38:                                               ; preds = %35
  store i8 1, ptr %2, align 1
  br label %40

39:                                               ; preds = %35
  store i8 0, ptr %2, align 1
  br label %40

40:                                               ; preds = %39, %38, %34, %30, %26, %22, %18, %14, %10, %6
  %41 = load i8, ptr %2, align 1
  ret i8 %41
}