; Function Attrs: mustprogress nofree norecurse nosync nounwind willreturn memory(none) uwtable
define hidden noundef zeroext range(i8 0, 2) i8 @_ZN7Threads24is_supported_jni_versionEi(i32 noundef %0) local_unnamed_addr #4 align 2 {
  switch i32 %0, label %2 [
    i32 65538, label %3
    i32 65540, label %3
    i32 65542, label %3
    i32 65544, label %3
    i32 589824, label %3
    i32 655360, label %3
    i32 1245184, label %3
    i32 1310720, label %3
    i32 1376256, label %3
  ]

2:                                                ; preds = %1
  br label %3

3:                                                ; preds = %1, %1, %1, %1, %1, %1, %1, %1, %1, %2
  %.0 = phi i8 [ 0, %2 ], [ 1, %1 ], [ 1, %1 ], [ 1, %1 ], [ 1, %1 ], [ 1, %1 ], [ 1, %1 ], [ 1, %1 ], [ 1, %1 ], [ 1, %1 ]
  ret i8 %.0
}